
tm4c_test.elf:     file format elf32-littlearm


Disassembly of section .text:

00000000 <_text>:
   0:	20000104 	.word	0x20000104
   4:	000002b5 	.word	0x000002b5
   8:	00000319 	.word	0x00000319
   c:	0000031f 	.word	0x0000031f
  10:	00000325 	.word	0x00000325
  14:	00000325 	.word	0x00000325
  18:	00000325 	.word	0x00000325
	...
  2c:	00000325 	.word	0x00000325
  30:	00000325 	.word	0x00000325
  34:	00000000 	.word	0x00000000
  38:	00000325 	.word	0x00000325
  3c:	0000065d 	.word	0x0000065d
  40:	00000325 	.word	0x00000325
  44:	00000325 	.word	0x00000325
  48:	00000325 	.word	0x00000325
  4c:	00000325 	.word	0x00000325
  50:	00000325 	.word	0x00000325
  54:	00000325 	.word	0x00000325
  58:	00000325 	.word	0x00000325
  5c:	00000325 	.word	0x00000325
  60:	00000325 	.word	0x00000325
  64:	00000325 	.word	0x00000325
  68:	00000325 	.word	0x00000325
  6c:	00000325 	.word	0x00000325
  70:	00000325 	.word	0x00000325
  74:	00000325 	.word	0x00000325
  78:	00000325 	.word	0x00000325
  7c:	00000325 	.word	0x00000325
  80:	00000325 	.word	0x00000325
  84:	00000325 	.word	0x00000325
  88:	00000325 	.word	0x00000325
  8c:	00000325 	.word	0x00000325
  90:	00000325 	.word	0x00000325
  94:	00000325 	.word	0x00000325
  98:	00000325 	.word	0x00000325
  9c:	00000325 	.word	0x00000325
  a0:	00000325 	.word	0x00000325
  a4:	00000325 	.word	0x00000325
  a8:	00000325 	.word	0x00000325
  ac:	00000325 	.word	0x00000325
  b0:	00000325 	.word	0x00000325
  b4:	00000325 	.word	0x00000325
  b8:	00000325 	.word	0x00000325
  bc:	00000325 	.word	0x00000325
  c0:	00000325 	.word	0x00000325
  c4:	00000325 	.word	0x00000325
  c8:	00000325 	.word	0x00000325
  cc:	00000325 	.word	0x00000325
  d0:	00000325 	.word	0x00000325
  d4:	00000325 	.word	0x00000325
  d8:	00000325 	.word	0x00000325
  dc:	00000325 	.word	0x00000325
  e0:	00000325 	.word	0x00000325
	...
  ec:	00000325 	.word	0x00000325
  f0:	00000325 	.word	0x00000325
  f4:	00000325 	.word	0x00000325
  f8:	00000325 	.word	0x00000325
  fc:	00000325 	.word	0x00000325
 100:	00000325 	.word	0x00000325
 104:	00000325 	.word	0x00000325
 108:	00000325 	.word	0x00000325
 10c:	00000325 	.word	0x00000325
	...
 118:	00000325 	.word	0x00000325
 11c:	00000325 	.word	0x00000325
 120:	00000325 	.word	0x00000325
 124:	00000325 	.word	0x00000325
 128:	00000325 	.word	0x00000325
 12c:	00000325 	.word	0x00000325
 130:	00000325 	.word	0x00000325
 134:	00000325 	.word	0x00000325
 138:	00000325 	.word	0x00000325
 13c:	00000325 	.word	0x00000325
	...
 150:	00000325 	.word	0x00000325
 154:	00000325 	.word	0x00000325
 158:	00000325 	.word	0x00000325
 15c:	00000325 	.word	0x00000325
	...
 1b0:	00000325 	.word	0x00000325
 1b4:	00000325 	.word	0x00000325
 1b8:	00000325 	.word	0x00000325
 1bc:	00000325 	.word	0x00000325
 1c0:	00000325 	.word	0x00000325
 1c4:	00000325 	.word	0x00000325
 1c8:	00000325 	.word	0x00000325
 1cc:	00000325 	.word	0x00000325
 1d0:	00000325 	.word	0x00000325
 1d4:	00000325 	.word	0x00000325
 1d8:	00000325 	.word	0x00000325
 1dc:	00000325 	.word	0x00000325
 1e0:	00000325 	.word	0x00000325
 1e4:	00000325 	.word	0x00000325
 1e8:	00000325 	.word	0x00000325
	...
 1f4:	00000325 	.word	0x00000325
 1f8:	00000325 	.word	0x00000325
 1fc:	00000325 	.word	0x00000325
 200:	00000325 	.word	0x00000325
 204:	00000325 	.word	0x00000325
	...
 210:	00000325 	.word	0x00000325
 214:	00000325 	.word	0x00000325
 218:	00000325 	.word	0x00000325
 21c:	00000325 	.word	0x00000325
 220:	00000325 	.word	0x00000325
 224:	00000325 	.word	0x00000325
 228:	00000325 	.word	0x00000325
 22c:	00000325 	.word	0x00000325
 230:	00000325 	.word	0x00000325
 234:	00000325 	.word	0x00000325
 238:	00000325 	.word	0x00000325
 23c:	00000325 	.word	0x00000325
 240:	00000325 	.word	0x00000325
 244:	00000325 	.word	0x00000325
 248:	00000325 	.word	0x00000325
 24c:	00000325 	.word	0x00000325
 250:	00000325 	.word	0x00000325
 254:	00000325 	.word	0x00000325
 258:	00000325 	.word	0x00000325
 25c:	00000325 	.word	0x00000325
 260:	00000325 	.word	0x00000325
 264:	00000325 	.word	0x00000325
 268:	00000325 	.word	0x00000325

0000026c <delayloop>:
 26c:	b480      	push	{r7}
 26e:	b085      	sub	sp, #20
 270:	af00      	add	r7, sp, #0
 272:	4603      	mov	r3, r0
 274:	71fb      	strb	r3, [r7, #7]
 276:	e00c      	b.n	292 <delayloop+0x26>
 278:	2300      	movs	r3, #0
 27a:	81fb      	strh	r3, [r7, #14]
 27c:	e002      	b.n	284 <delayloop+0x18>
 27e:	89fb      	ldrh	r3, [r7, #14]
 280:	3301      	adds	r3, #1
 282:	81fb      	strh	r3, [r7, #14]
 284:	89fb      	ldrh	r3, [r7, #14]
 286:	f5b3 7f7a 	cmp.w	r3, #1000	; 0x3e8
 28a:	d3f8      	bcc.n	27e <delayloop+0x12>
 28c:	79fb      	ldrb	r3, [r7, #7]
 28e:	3b01      	subs	r3, #1
 290:	71fb      	strb	r3, [r7, #7]
 292:	79fb      	ldrb	r3, [r7, #7]
 294:	2b00      	cmp	r3, #0
 296:	d1ef      	bne.n	278 <delayloop+0xc>
 298:	bf00      	nop
 29a:	3714      	adds	r7, #20
 29c:	46bd      	mov	sp, r7
 29e:	bc80      	pop	{r7}
 2a0:	4770      	bx	lr

000002a2 <main>:
 2a2:	b580      	push	{r7, lr}
 2a4:	af00      	add	r7, sp, #0
 2a6:	f000 f9df 	bl	668 <appTaskInit>
 2aa:	200a      	movs	r0, #10
 2ac:	f000 f9ba 	bl	624 <SysTickIntEnable>
 2b0:	bf30      	wfi
 2b2:	e7fd      	b.n	2b0 <main+0xe>

000002b4 <ResetISR>:
 2b4:	b580      	push	{r7, lr}
 2b6:	b082      	sub	sp, #8
 2b8:	af00      	add	r7, sp, #0
 2ba:	4b13      	ldr	r3, [pc, #76]	; (308 <zero_loop+0x24>)
 2bc:	607b      	str	r3, [r7, #4]
 2be:	4b13      	ldr	r3, [pc, #76]	; (30c <zero_loop+0x28>)
 2c0:	603b      	str	r3, [r7, #0]
 2c2:	e007      	b.n	2d4 <ResetISR+0x20>
 2c4:	683b      	ldr	r3, [r7, #0]
 2c6:	1d1a      	adds	r2, r3, #4
 2c8:	603a      	str	r2, [r7, #0]
 2ca:	687a      	ldr	r2, [r7, #4]
 2cc:	1d11      	adds	r1, r2, #4
 2ce:	6079      	str	r1, [r7, #4]
 2d0:	6812      	ldr	r2, [r2, #0]
 2d2:	601a      	str	r2, [r3, #0]
 2d4:	683b      	ldr	r3, [r7, #0]
 2d6:	4a0e      	ldr	r2, [pc, #56]	; (310 <zero_loop+0x2c>)
 2d8:	4293      	cmp	r3, r2
 2da:	d3f3      	bcc.n	2c4 <ResetISR+0x10>
 2dc:	4813      	ldr	r0, [pc, #76]	; (32c <IntDefaultHandler+0x8>)
 2de:	4914      	ldr	r1, [pc, #80]	; (330 <IntDefaultHandler+0xc>)
 2e0:	f04f 0200 	mov.w	r2, #0

000002e4 <zero_loop>:
 2e4:	4288      	cmp	r0, r1
 2e6:	bfb8      	it	lt
 2e8:	f840 2b04 	strlt.w	r2, [r0], #4
 2ec:	dbfa      	blt.n	2e4 <zero_loop>
 2ee:	4a09      	ldr	r2, [pc, #36]	; (314 <zero_loop+0x30>)
 2f0:	4b08      	ldr	r3, [pc, #32]	; (314 <zero_loop+0x30>)
 2f2:	681b      	ldr	r3, [r3, #0]
 2f4:	f443 0370 	orr.w	r3, r3, #15728640	; 0xf00000
 2f8:	6013      	str	r3, [r2, #0]
 2fa:	f7ff ffd2 	bl	2a2 <main>
 2fe:	bf00      	nop
 300:	3708      	adds	r7, #8
 302:	46bd      	mov	sp, r7
 304:	bd80      	pop	{r7, pc}
 306:	bf00      	nop
 308:	00000860 	.word	0x00000860
 30c:	20000000 	.word	0x20000000
 310:	20000004 	.word	0x20000004
 314:	e000ed88 	.word	0xe000ed88

00000318 <NmiSR>:
 318:	b480      	push	{r7}
 31a:	af00      	add	r7, sp, #0
 31c:	e7fe      	b.n	31c <NmiSR+0x4>

0000031e <FaultISR>:
 31e:	b480      	push	{r7}
 320:	af00      	add	r7, sp, #0
 322:	e7fe      	b.n	322 <FaultISR+0x4>

00000324 <IntDefaultHandler>:
 324:	b480      	push	{r7}
 326:	af00      	add	r7, sp, #0
 328:	e7fe      	b.n	328 <IntDefaultHandler+0x4>
 32a:	0000      	.short	0x0000
 32c:	20000004 	.word	0x20000004
 330:	2000010a 	.word	0x2000010a

00000334 <INIT_LED_1>:
 334:	b480      	push	{r7}
 336:	af00      	add	r7, sp, #0
 338:	4a14      	ldr	r2, [pc, #80]	; (38c <INIT_LED_1+0x58>)
 33a:	4b14      	ldr	r3, [pc, #80]	; (38c <INIT_LED_1+0x58>)
 33c:	681b      	ldr	r3, [r3, #0]
 33e:	f443 5380 	orr.w	r3, r3, #4096	; 0x1000
 342:	6013      	str	r3, [r2, #0]
 344:	bf00      	nop
 346:	4b12      	ldr	r3, [pc, #72]	; (390 <INIT_LED_1+0x5c>)
 348:	681b      	ldr	r3, [r3, #0]
 34a:	f403 5380 	and.w	r3, r3, #4096	; 0x1000
 34e:	2b00      	cmp	r3, #0
 350:	d0f9      	beq.n	346 <INIT_LED_1+0x12>
 352:	4a10      	ldr	r2, [pc, #64]	; (394 <INIT_LED_1+0x60>)
 354:	4b0f      	ldr	r3, [pc, #60]	; (394 <INIT_LED_1+0x60>)
 356:	681b      	ldr	r3, [r3, #0]
 358:	f043 0302 	orr.w	r3, r3, #2
 35c:	6013      	str	r3, [r2, #0]
 35e:	4a0e      	ldr	r2, [pc, #56]	; (398 <INIT_LED_1+0x64>)
 360:	4b0d      	ldr	r3, [pc, #52]	; (398 <INIT_LED_1+0x64>)
 362:	681b      	ldr	r3, [r3, #0]
 364:	f043 0302 	orr.w	r3, r3, #2
 368:	6013      	str	r3, [r2, #0]
 36a:	4a0c      	ldr	r2, [pc, #48]	; (39c <INIT_LED_1+0x68>)
 36c:	4b0b      	ldr	r3, [pc, #44]	; (39c <INIT_LED_1+0x68>)
 36e:	681b      	ldr	r3, [r3, #0]
 370:	f023 0302 	bic.w	r3, r3, #2
 374:	6013      	str	r3, [r2, #0]
 376:	4b0a      	ldr	r3, [pc, #40]	; (3a0 <INIT_LED_1+0x6c>)
 378:	781b      	ldrb	r3, [r3, #0]
 37a:	f023 0302 	bic.w	r3, r3, #2
 37e:	b2da      	uxtb	r2, r3
 380:	4b07      	ldr	r3, [pc, #28]	; (3a0 <INIT_LED_1+0x6c>)
 382:	701a      	strb	r2, [r3, #0]
 384:	bf00      	nop
 386:	46bd      	mov	sp, r7
 388:	bc80      	pop	{r7}
 38a:	4770      	bx	lr
 38c:	400fe608 	.word	0x400fe608
 390:	400fea08 	.word	0x400fea08
 394:	40064400 	.word	0x40064400
 398:	4006451c 	.word	0x4006451c
 39c:	400643fc 	.word	0x400643fc
 3a0:	20000104 	.word	0x20000104

000003a4 <INIT_LED_2>:
 3a4:	b480      	push	{r7}
 3a6:	af00      	add	r7, sp, #0
 3a8:	4a14      	ldr	r2, [pc, #80]	; (3fc <INIT_LED_2+0x58>)
 3aa:	4b14      	ldr	r3, [pc, #80]	; (3fc <INIT_LED_2+0x58>)
 3ac:	681b      	ldr	r3, [r3, #0]
 3ae:	f443 5380 	orr.w	r3, r3, #4096	; 0x1000
 3b2:	6013      	str	r3, [r2, #0]
 3b4:	bf00      	nop
 3b6:	4b12      	ldr	r3, [pc, #72]	; (400 <INIT_LED_2+0x5c>)
 3b8:	681b      	ldr	r3, [r3, #0]
 3ba:	f403 5380 	and.w	r3, r3, #4096	; 0x1000
 3be:	2b00      	cmp	r3, #0
 3c0:	d0f9      	beq.n	3b6 <INIT_LED_2+0x12>
 3c2:	4a10      	ldr	r2, [pc, #64]	; (404 <INIT_LED_2+0x60>)
 3c4:	4b0f      	ldr	r3, [pc, #60]	; (404 <INIT_LED_2+0x60>)
 3c6:	681b      	ldr	r3, [r3, #0]
 3c8:	f043 0301 	orr.w	r3, r3, #1
 3cc:	6013      	str	r3, [r2, #0]
 3ce:	4a0e      	ldr	r2, [pc, #56]	; (408 <INIT_LED_2+0x64>)
 3d0:	4b0d      	ldr	r3, [pc, #52]	; (408 <INIT_LED_2+0x64>)
 3d2:	681b      	ldr	r3, [r3, #0]
 3d4:	f043 0301 	orr.w	r3, r3, #1
 3d8:	6013      	str	r3, [r2, #0]
 3da:	4a0c      	ldr	r2, [pc, #48]	; (40c <INIT_LED_2+0x68>)
 3dc:	4b0b      	ldr	r3, [pc, #44]	; (40c <INIT_LED_2+0x68>)
 3de:	681b      	ldr	r3, [r3, #0]
 3e0:	f023 0301 	bic.w	r3, r3, #1
 3e4:	6013      	str	r3, [r2, #0]
 3e6:	4b0a      	ldr	r3, [pc, #40]	; (410 <INIT_LED_2+0x6c>)
 3e8:	781b      	ldrb	r3, [r3, #0]
 3ea:	f023 0301 	bic.w	r3, r3, #1
 3ee:	b2da      	uxtb	r2, r3
 3f0:	4b07      	ldr	r3, [pc, #28]	; (410 <INIT_LED_2+0x6c>)
 3f2:	701a      	strb	r2, [r3, #0]
 3f4:	bf00      	nop
 3f6:	46bd      	mov	sp, r7
 3f8:	bc80      	pop	{r7}
 3fa:	4770      	bx	lr
 3fc:	400fe608 	.word	0x400fe608
 400:	400fea08 	.word	0x400fea08
 404:	40064400 	.word	0x40064400
 408:	4006451c 	.word	0x4006451c
 40c:	400643fc 	.word	0x400643fc
 410:	20000104 	.word	0x20000104

00000414 <INIT_LED_3>:
 414:	b480      	push	{r7}
 416:	af00      	add	r7, sp, #0
 418:	4a14      	ldr	r2, [pc, #80]	; (46c <INIT_LED_3+0x58>)
 41a:	4b14      	ldr	r3, [pc, #80]	; (46c <INIT_LED_3+0x58>)
 41c:	681b      	ldr	r3, [r3, #0]
 41e:	f043 0320 	orr.w	r3, r3, #32
 422:	6013      	str	r3, [r2, #0]
 424:	bf00      	nop
 426:	4b12      	ldr	r3, [pc, #72]	; (470 <INIT_LED_3+0x5c>)
 428:	681b      	ldr	r3, [r3, #0]
 42a:	f003 0320 	and.w	r3, r3, #32
 42e:	2b00      	cmp	r3, #0
 430:	d0f9      	beq.n	426 <INIT_LED_3+0x12>
 432:	4a10      	ldr	r2, [pc, #64]	; (474 <INIT_LED_3+0x60>)
 434:	4b0f      	ldr	r3, [pc, #60]	; (474 <INIT_LED_3+0x60>)
 436:	681b      	ldr	r3, [r3, #0]
 438:	f043 0310 	orr.w	r3, r3, #16
 43c:	6013      	str	r3, [r2, #0]
 43e:	4a0e      	ldr	r2, [pc, #56]	; (478 <INIT_LED_3+0x64>)
 440:	4b0d      	ldr	r3, [pc, #52]	; (478 <INIT_LED_3+0x64>)
 442:	681b      	ldr	r3, [r3, #0]
 444:	f043 0310 	orr.w	r3, r3, #16
 448:	6013      	str	r3, [r2, #0]
 44a:	4a0c      	ldr	r2, [pc, #48]	; (47c <INIT_LED_3+0x68>)
 44c:	4b0b      	ldr	r3, [pc, #44]	; (47c <INIT_LED_3+0x68>)
 44e:	681b      	ldr	r3, [r3, #0]
 450:	f023 0310 	bic.w	r3, r3, #16
 454:	6013      	str	r3, [r2, #0]
 456:	4b0a      	ldr	r3, [pc, #40]	; (480 <INIT_LED_3+0x6c>)
 458:	781b      	ldrb	r3, [r3, #0]
 45a:	f023 0310 	bic.w	r3, r3, #16
 45e:	b2da      	uxtb	r2, r3
 460:	4b07      	ldr	r3, [pc, #28]	; (480 <INIT_LED_3+0x6c>)
 462:	701a      	strb	r2, [r3, #0]
 464:	bf00      	nop
 466:	46bd      	mov	sp, r7
 468:	bc80      	pop	{r7}
 46a:	4770      	bx	lr
 46c:	400fe608 	.word	0x400fe608
 470:	400fea08 	.word	0x400fea08
 474:	4005d400 	.word	0x4005d400
 478:	4005d51c 	.word	0x4005d51c
 47c:	4005d3fc 	.word	0x4005d3fc
 480:	20000104 	.word	0x20000104

00000484 <INIT_LED_4>:
 484:	b480      	push	{r7}
 486:	af00      	add	r7, sp, #0
 488:	4a14      	ldr	r2, [pc, #80]	; (4dc <INIT_LED_4+0x58>)
 48a:	4b14      	ldr	r3, [pc, #80]	; (4dc <INIT_LED_4+0x58>)
 48c:	681b      	ldr	r3, [r3, #0]
 48e:	f043 0320 	orr.w	r3, r3, #32
 492:	6013      	str	r3, [r2, #0]
 494:	bf00      	nop
 496:	4b12      	ldr	r3, [pc, #72]	; (4e0 <INIT_LED_4+0x5c>)
 498:	681b      	ldr	r3, [r3, #0]
 49a:	f003 0320 	and.w	r3, r3, #32
 49e:	2b00      	cmp	r3, #0
 4a0:	d0f9      	beq.n	496 <INIT_LED_4+0x12>
 4a2:	4a10      	ldr	r2, [pc, #64]	; (4e4 <INIT_LED_4+0x60>)
 4a4:	4b0f      	ldr	r3, [pc, #60]	; (4e4 <INIT_LED_4+0x60>)
 4a6:	681b      	ldr	r3, [r3, #0]
 4a8:	f043 0301 	orr.w	r3, r3, #1
 4ac:	6013      	str	r3, [r2, #0]
 4ae:	4a0e      	ldr	r2, [pc, #56]	; (4e8 <INIT_LED_4+0x64>)
 4b0:	4b0d      	ldr	r3, [pc, #52]	; (4e8 <INIT_LED_4+0x64>)
 4b2:	681b      	ldr	r3, [r3, #0]
 4b4:	f043 0301 	orr.w	r3, r3, #1
 4b8:	6013      	str	r3, [r2, #0]
 4ba:	4a0c      	ldr	r2, [pc, #48]	; (4ec <INIT_LED_4+0x68>)
 4bc:	4b0b      	ldr	r3, [pc, #44]	; (4ec <INIT_LED_4+0x68>)
 4be:	681b      	ldr	r3, [r3, #0]
 4c0:	f023 0301 	bic.w	r3, r3, #1
 4c4:	6013      	str	r3, [r2, #0]
 4c6:	4b0a      	ldr	r3, [pc, #40]	; (4f0 <INIT_LED_4+0x6c>)
 4c8:	781b      	ldrb	r3, [r3, #0]
 4ca:	f023 0301 	bic.w	r3, r3, #1
 4ce:	b2da      	uxtb	r2, r3
 4d0:	4b07      	ldr	r3, [pc, #28]	; (4f0 <INIT_LED_4+0x6c>)
 4d2:	701a      	strb	r2, [r3, #0]
 4d4:	bf00      	nop
 4d6:	46bd      	mov	sp, r7
 4d8:	bc80      	pop	{r7}
 4da:	4770      	bx	lr
 4dc:	400fe608 	.word	0x400fe608
 4e0:	400fea08 	.word	0x400fea08
 4e4:	4005d400 	.word	0x4005d400
 4e8:	4005d51c 	.word	0x4005d51c
 4ec:	4005d3fc 	.word	0x4005d3fc
 4f0:	20000104 	.word	0x20000104

000004f4 <LED_TURN_ON>:
 4f4:	b480      	push	{r7}
 4f6:	b083      	sub	sp, #12
 4f8:	af00      	add	r7, sp, #0
 4fa:	4603      	mov	r3, r0
 4fc:	460a      	mov	r2, r1
 4fe:	71fb      	strb	r3, [r7, #7]
 500:	4613      	mov	r3, r2
 502:	71bb      	strb	r3, [r7, #6]
 504:	79fb      	ldrb	r3, [r7, #7]
 506:	2b0c      	cmp	r3, #12
 508:	d108      	bne.n	51c <LED_TURN_ON+0x28>
 50a:	4910      	ldr	r1, [pc, #64]	; (54c <LED_TURN_ON+0x58>)
 50c:	4b0f      	ldr	r3, [pc, #60]	; (54c <LED_TURN_ON+0x58>)
 50e:	681a      	ldr	r2, [r3, #0]
 510:	79bb      	ldrb	r3, [r7, #6]
 512:	2001      	movs	r0, #1
 514:	fa00 f303 	lsl.w	r3, r0, r3
 518:	4313      	orrs	r3, r2
 51a:	600b      	str	r3, [r1, #0]
 51c:	79fb      	ldrb	r3, [r7, #7]
 51e:	2b05      	cmp	r3, #5
 520:	d108      	bne.n	534 <LED_TURN_ON+0x40>
 522:	490b      	ldr	r1, [pc, #44]	; (550 <LED_TURN_ON+0x5c>)
 524:	4b0a      	ldr	r3, [pc, #40]	; (550 <LED_TURN_ON+0x5c>)
 526:	681a      	ldr	r2, [r3, #0]
 528:	79bb      	ldrb	r3, [r7, #6]
 52a:	2001      	movs	r0, #1
 52c:	fa00 f303 	lsl.w	r3, r0, r3
 530:	4313      	orrs	r3, r2
 532:	600b      	str	r3, [r1, #0]
 534:	4b07      	ldr	r3, [pc, #28]	; (554 <LED_TURN_ON+0x60>)
 536:	781b      	ldrb	r3, [r3, #0]
 538:	f043 0302 	orr.w	r3, r3, #2
 53c:	b2da      	uxtb	r2, r3
 53e:	4b05      	ldr	r3, [pc, #20]	; (554 <LED_TURN_ON+0x60>)
 540:	701a      	strb	r2, [r3, #0]
 542:	bf00      	nop
 544:	370c      	adds	r7, #12
 546:	46bd      	mov	sp, r7
 548:	bc80      	pop	{r7}
 54a:	4770      	bx	lr
 54c:	400643fc 	.word	0x400643fc
 550:	4005d3fc 	.word	0x4005d3fc
 554:	20000104 	.word	0x20000104

00000558 <LED_TURN_OFF>:
 558:	b480      	push	{r7}
 55a:	b083      	sub	sp, #12
 55c:	af00      	add	r7, sp, #0
 55e:	4603      	mov	r3, r0
 560:	460a      	mov	r2, r1
 562:	71fb      	strb	r3, [r7, #7]
 564:	4613      	mov	r3, r2
 566:	71bb      	strb	r3, [r7, #6]
 568:	79fb      	ldrb	r3, [r7, #7]
 56a:	2b0c      	cmp	r3, #12
 56c:	d109      	bne.n	582 <LED_TURN_OFF+0x2a>
 56e:	4911      	ldr	r1, [pc, #68]	; (5b4 <LED_TURN_OFF+0x5c>)
 570:	4b10      	ldr	r3, [pc, #64]	; (5b4 <LED_TURN_OFF+0x5c>)
 572:	681a      	ldr	r2, [r3, #0]
 574:	79bb      	ldrb	r3, [r7, #6]
 576:	2001      	movs	r0, #1
 578:	fa00 f303 	lsl.w	r3, r0, r3
 57c:	43db      	mvns	r3, r3
 57e:	4013      	ands	r3, r2
 580:	600b      	str	r3, [r1, #0]
 582:	79fb      	ldrb	r3, [r7, #7]
 584:	2b05      	cmp	r3, #5
 586:	d109      	bne.n	59c <LED_TURN_OFF+0x44>
 588:	490b      	ldr	r1, [pc, #44]	; (5b8 <LED_TURN_OFF+0x60>)
 58a:	4b0b      	ldr	r3, [pc, #44]	; (5b8 <LED_TURN_OFF+0x60>)
 58c:	681a      	ldr	r2, [r3, #0]
 58e:	79bb      	ldrb	r3, [r7, #6]
 590:	2001      	movs	r0, #1
 592:	fa00 f303 	lsl.w	r3, r0, r3
 596:	43db      	mvns	r3, r3
 598:	4013      	ands	r3, r2
 59a:	600b      	str	r3, [r1, #0]
 59c:	4b07      	ldr	r3, [pc, #28]	; (5bc <LED_TURN_OFF+0x64>)
 59e:	781b      	ldrb	r3, [r3, #0]
 5a0:	f023 0302 	bic.w	r3, r3, #2
 5a4:	b2da      	uxtb	r2, r3
 5a6:	4b05      	ldr	r3, [pc, #20]	; (5bc <LED_TURN_OFF+0x64>)
 5a8:	701a      	strb	r2, [r3, #0]
 5aa:	bf00      	nop
 5ac:	370c      	adds	r7, #12
 5ae:	46bd      	mov	sp, r7
 5b0:	bc80      	pop	{r7}
 5b2:	4770      	bx	lr
 5b4:	400643fc 	.word	0x400643fc
 5b8:	4005d3fc 	.word	0x4005d3fc
 5bc:	20000104 	.word	0x20000104

000005c0 <LED_TOGGLE_STATE>:
 5c0:	b480      	push	{r7}
 5c2:	b083      	sub	sp, #12
 5c4:	af00      	add	r7, sp, #0
 5c6:	4603      	mov	r3, r0
 5c8:	460a      	mov	r2, r1
 5ca:	71fb      	strb	r3, [r7, #7]
 5cc:	4613      	mov	r3, r2
 5ce:	71bb      	strb	r3, [r7, #6]
 5d0:	79fb      	ldrb	r3, [r7, #7]
 5d2:	2b0c      	cmp	r3, #12
 5d4:	d108      	bne.n	5e8 <LED_TOGGLE_STATE+0x28>
 5d6:	4910      	ldr	r1, [pc, #64]	; (618 <LED_TOGGLE_STATE+0x58>)
 5d8:	4b0f      	ldr	r3, [pc, #60]	; (618 <LED_TOGGLE_STATE+0x58>)
 5da:	681a      	ldr	r2, [r3, #0]
 5dc:	79bb      	ldrb	r3, [r7, #6]
 5de:	2001      	movs	r0, #1
 5e0:	fa00 f303 	lsl.w	r3, r0, r3
 5e4:	4053      	eors	r3, r2
 5e6:	600b      	str	r3, [r1, #0]
 5e8:	79fb      	ldrb	r3, [r7, #7]
 5ea:	2b05      	cmp	r3, #5
 5ec:	d108      	bne.n	600 <LED_TOGGLE_STATE+0x40>
 5ee:	490b      	ldr	r1, [pc, #44]	; (61c <LED_TOGGLE_STATE+0x5c>)
 5f0:	4b0a      	ldr	r3, [pc, #40]	; (61c <LED_TOGGLE_STATE+0x5c>)
 5f2:	681a      	ldr	r2, [r3, #0]
 5f4:	79bb      	ldrb	r3, [r7, #6]
 5f6:	2001      	movs	r0, #1
 5f8:	fa00 f303 	lsl.w	r3, r0, r3
 5fc:	4053      	eors	r3, r2
 5fe:	600b      	str	r3, [r1, #0]
 600:	4b07      	ldr	r3, [pc, #28]	; (620 <LED_TOGGLE_STATE+0x60>)
 602:	781b      	ldrb	r3, [r3, #0]
 604:	f083 0302 	eor.w	r3, r3, #2
 608:	b2da      	uxtb	r2, r3
 60a:	4b05      	ldr	r3, [pc, #20]	; (620 <LED_TOGGLE_STATE+0x60>)
 60c:	701a      	strb	r2, [r3, #0]
 60e:	bf00      	nop
 610:	370c      	adds	r7, #12
 612:	46bd      	mov	sp, r7
 614:	bc80      	pop	{r7}
 616:	4770      	bx	lr
 618:	400643fc 	.word	0x400643fc
 61c:	4005d3fc 	.word	0x4005d3fc
 620:	20000104 	.word	0x20000104

00000624 <SysTickIntEnable>:
 624:	b480      	push	{r7}
 626:	b083      	sub	sp, #12
 628:	af00      	add	r7, sp, #0
 62a:	4603      	mov	r3, r0
 62c:	80fb      	strh	r3, [r7, #6]
 62e:	4a09      	ldr	r2, [pc, #36]	; (654 <SysTickIntEnable+0x30>)
 630:	88fb      	ldrh	r3, [r7, #6]
 632:	f44f 517a 	mov.w	r1, #16000	; 0x3e80
 636:	fb01 f303 	mul.w	r3, r1, r3
 63a:	6013      	str	r3, [r2, #0]
 63c:	4a06      	ldr	r2, [pc, #24]	; (658 <SysTickIntEnable+0x34>)
 63e:	4b06      	ldr	r3, [pc, #24]	; (658 <SysTickIntEnable+0x34>)
 640:	681b      	ldr	r3, [r3, #0]
 642:	f043 0307 	orr.w	r3, r3, #7
 646:	6013      	str	r3, [r2, #0]
 648:	bf00      	nop
 64a:	370c      	adds	r7, #12
 64c:	46bd      	mov	sp, r7
 64e:	bc80      	pop	{r7}
 650:	4770      	bx	lr
 652:	bf00      	nop
 654:	e000e014 	.word	0xe000e014
 658:	e000e010 	.word	0xe000e010

0000065c <SysTick_Handler>:
 65c:	b580      	push	{r7, lr}
 65e:	af00      	add	r7, sp, #0
 660:	f000 f816 	bl	690 <mainAppTask>
 664:	bf00      	nop
 666:	bd80      	pop	{r7, pc}

00000668 <appTaskInit>:
 668:	b580      	push	{r7, lr}
 66a:	af00      	add	r7, sp, #0
 66c:	f7ff fe62 	bl	334 <INIT_LED_1>
 670:	f7ff fe98 	bl	3a4 <INIT_LED_2>
 674:	2101      	movs	r1, #1
 676:	200c      	movs	r0, #12
 678:	f7ff ff3c 	bl	4f4 <LED_TURN_ON>
 67c:	2100      	movs	r1, #0
 67e:	200c      	movs	r0, #12
 680:	f7ff ff38 	bl	4f4 <LED_TURN_ON>
 684:	f44f 30e1 	mov.w	r0, #115200	; 0x1c200
 688:	f000 f83c 	bl	704 <UARTInit>
 68c:	bf00      	nop
 68e:	bd80      	pop	{r7, pc}

00000690 <mainAppTask>:
 690:	b580      	push	{r7, lr}
 692:	af00      	add	r7, sp, #0
 694:	4b17      	ldr	r3, [pc, #92]	; (6f4 <mainAppTask+0x64>)
 696:	881b      	ldrh	r3, [r3, #0]
 698:	085b      	lsrs	r3, r3, #1
 69a:	b29a      	uxth	r2, r3
 69c:	4b16      	ldr	r3, [pc, #88]	; (6f8 <mainAppTask+0x68>)
 69e:	881b      	ldrh	r3, [r3, #0]
 6a0:	429a      	cmp	r2, r3
 6a2:	d109      	bne.n	6b8 <mainAppTask+0x28>
 6a4:	2101      	movs	r1, #1
 6a6:	200c      	movs	r0, #12
 6a8:	f7ff ff8a 	bl	5c0 <LED_TOGGLE_STATE>
 6ac:	4b12      	ldr	r3, [pc, #72]	; (6f8 <mainAppTask+0x68>)
 6ae:	2200      	movs	r2, #0
 6b0:	801a      	strh	r2, [r3, #0]
 6b2:	2041      	movs	r0, #65	; 0x41
 6b4:	f000 f8a4 	bl	800 <UARTSendChar>
 6b8:	4b10      	ldr	r3, [pc, #64]	; (6fc <mainAppTask+0x6c>)
 6ba:	881b      	ldrh	r3, [r3, #0]
 6bc:	085b      	lsrs	r3, r3, #1
 6be:	b29a      	uxth	r2, r3
 6c0:	4b0f      	ldr	r3, [pc, #60]	; (700 <mainAppTask+0x70>)
 6c2:	881b      	ldrh	r3, [r3, #0]
 6c4:	429a      	cmp	r2, r3
 6c6:	d106      	bne.n	6d6 <mainAppTask+0x46>
 6c8:	2100      	movs	r1, #0
 6ca:	200c      	movs	r0, #12
 6cc:	f7ff ff78 	bl	5c0 <LED_TOGGLE_STATE>
 6d0:	4b0b      	ldr	r3, [pc, #44]	; (700 <mainAppTask+0x70>)
 6d2:	2200      	movs	r2, #0
 6d4:	801a      	strh	r2, [r3, #0]
 6d6:	4b08      	ldr	r3, [pc, #32]	; (6f8 <mainAppTask+0x68>)
 6d8:	881b      	ldrh	r3, [r3, #0]
 6da:	3301      	adds	r3, #1
 6dc:	b29a      	uxth	r2, r3
 6de:	4b06      	ldr	r3, [pc, #24]	; (6f8 <mainAppTask+0x68>)
 6e0:	801a      	strh	r2, [r3, #0]
 6e2:	4b07      	ldr	r3, [pc, #28]	; (700 <mainAppTask+0x70>)
 6e4:	881b      	ldrh	r3, [r3, #0]
 6e6:	3301      	adds	r3, #1
 6e8:	b29a      	uxth	r2, r3
 6ea:	4b05      	ldr	r3, [pc, #20]	; (700 <mainAppTask+0x70>)
 6ec:	801a      	strh	r2, [r3, #0]
 6ee:	bf00      	nop
 6f0:	bd80      	pop	{r7, pc}
 6f2:	bf00      	nop
 6f4:	20000000 	.word	0x20000000
 6f8:	20000106 	.word	0x20000106
 6fc:	20000002 	.word	0x20000002
 700:	20000108 	.word	0x20000108

00000704 <UARTInit>:
 704:	b480      	push	{r7}
 706:	b083      	sub	sp, #12
 708:	af00      	add	r7, sp, #0
 70a:	6078      	str	r0, [r7, #4]
 70c:	4a2e      	ldr	r2, [pc, #184]	; (7c8 <UARTInit+0xc4>)
 70e:	4b2e      	ldr	r3, [pc, #184]	; (7c8 <UARTInit+0xc4>)
 710:	681b      	ldr	r3, [r3, #0]
 712:	f043 0301 	orr.w	r3, r3, #1
 716:	6013      	str	r3, [r2, #0]
 718:	bf00      	nop
 71a:	4b2c      	ldr	r3, [pc, #176]	; (7cc <UARTInit+0xc8>)
 71c:	681b      	ldr	r3, [r3, #0]
 71e:	f003 0301 	and.w	r3, r3, #1
 722:	2b00      	cmp	r3, #0
 724:	d0f9      	beq.n	71a <UARTInit+0x16>
 726:	4a2a      	ldr	r2, [pc, #168]	; (7d0 <UARTInit+0xcc>)
 728:	4b29      	ldr	r3, [pc, #164]	; (7d0 <UARTInit+0xcc>)
 72a:	681b      	ldr	r3, [r3, #0]
 72c:	f043 0301 	orr.w	r3, r3, #1
 730:	6013      	str	r3, [r2, #0]
 732:	bf00      	nop
 734:	4b27      	ldr	r3, [pc, #156]	; (7d4 <UARTInit+0xd0>)
 736:	681b      	ldr	r3, [r3, #0]
 738:	f003 0301 	and.w	r3, r3, #1
 73c:	2b00      	cmp	r3, #0
 73e:	d0f9      	beq.n	734 <UARTInit+0x30>
 740:	4a25      	ldr	r2, [pc, #148]	; (7d8 <UARTInit+0xd4>)
 742:	4b25      	ldr	r3, [pc, #148]	; (7d8 <UARTInit+0xd4>)
 744:	681b      	ldr	r3, [r3, #0]
 746:	f043 0303 	orr.w	r3, r3, #3
 74a:	6013      	str	r3, [r2, #0]
 74c:	4a23      	ldr	r2, [pc, #140]	; (7dc <UARTInit+0xd8>)
 74e:	4b23      	ldr	r3, [pc, #140]	; (7dc <UARTInit+0xd8>)
 750:	681b      	ldr	r3, [r3, #0]
 752:	f043 0303 	orr.w	r3, r3, #3
 756:	6013      	str	r3, [r2, #0]
 758:	4a21      	ldr	r2, [pc, #132]	; (7e0 <UARTInit+0xdc>)
 75a:	4b21      	ldr	r3, [pc, #132]	; (7e0 <UARTInit+0xdc>)
 75c:	681b      	ldr	r3, [r3, #0]
 75e:	f043 0303 	orr.w	r3, r3, #3
 762:	6013      	str	r3, [r2, #0]
 764:	4a1f      	ldr	r2, [pc, #124]	; (7e4 <UARTInit+0xe0>)
 766:	4b1f      	ldr	r3, [pc, #124]	; (7e4 <UARTInit+0xe0>)
 768:	681b      	ldr	r3, [r3, #0]
 76a:	f043 0311 	orr.w	r3, r3, #17
 76e:	6013      	str	r3, [r2, #0]
 770:	4a1d      	ldr	r2, [pc, #116]	; (7e8 <UARTInit+0xe4>)
 772:	4b1d      	ldr	r3, [pc, #116]	; (7e8 <UARTInit+0xe4>)
 774:	681b      	ldr	r3, [r3, #0]
 776:	f023 0301 	bic.w	r3, r3, #1
 77a:	6013      	str	r3, [r2, #0]
 77c:	4a1a      	ldr	r2, [pc, #104]	; (7e8 <UARTInit+0xe4>)
 77e:	4b1a      	ldr	r3, [pc, #104]	; (7e8 <UARTInit+0xe4>)
 780:	681b      	ldr	r3, [r3, #0]
 782:	f443 7340 	orr.w	r3, r3, #768	; 0x300
 786:	6013      	str	r3, [r2, #0]
 788:	4a18      	ldr	r2, [pc, #96]	; (7ec <UARTInit+0xe8>)
 78a:	687b      	ldr	r3, [r7, #4]
 78c:	011b      	lsls	r3, r3, #4
 78e:	4918      	ldr	r1, [pc, #96]	; (7f0 <UARTInit+0xec>)
 790:	fbb1 f3f3 	udiv	r3, r1, r3
 794:	6013      	str	r3, [r2, #0]
 796:	4b17      	ldr	r3, [pc, #92]	; (7f4 <UARTInit+0xf0>)
 798:	222c      	movs	r2, #44	; 0x2c
 79a:	601a      	str	r2, [r3, #0]
 79c:	4a16      	ldr	r2, [pc, #88]	; (7f8 <UARTInit+0xf4>)
 79e:	4b16      	ldr	r3, [pc, #88]	; (7f8 <UARTInit+0xf4>)
 7a0:	681b      	ldr	r3, [r3, #0]
 7a2:	f043 0360 	orr.w	r3, r3, #96	; 0x60
 7a6:	6013      	str	r3, [r2, #0]
 7a8:	4a14      	ldr	r2, [pc, #80]	; (7fc <UARTInit+0xf8>)
 7aa:	4b14      	ldr	r3, [pc, #80]	; (7fc <UARTInit+0xf8>)
 7ac:	681b      	ldr	r3, [r3, #0]
 7ae:	6013      	str	r3, [r2, #0]
 7b0:	4a0d      	ldr	r2, [pc, #52]	; (7e8 <UARTInit+0xe4>)
 7b2:	4b0d      	ldr	r3, [pc, #52]	; (7e8 <UARTInit+0xe4>)
 7b4:	681b      	ldr	r3, [r3, #0]
 7b6:	f043 0301 	orr.w	r3, r3, #1
 7ba:	6013      	str	r3, [r2, #0]
 7bc:	bf00      	nop
 7be:	370c      	adds	r7, #12
 7c0:	46bd      	mov	sp, r7
 7c2:	bc80      	pop	{r7}
 7c4:	4770      	bx	lr
 7c6:	bf00      	nop
 7c8:	400fe618 	.word	0x400fe618
 7cc:	400fea18 	.word	0x400fea18
 7d0:	400fe608 	.word	0x400fe608
 7d4:	400fea08 	.word	0x400fea08
 7d8:	4005851c 	.word	0x4005851c
 7dc:	40058420 	.word	0x40058420
 7e0:	40058500 	.word	0x40058500
 7e4:	4005852c 	.word	0x4005852c
 7e8:	4000c030 	.word	0x4000c030
 7ec:	4000c024 	.word	0x4000c024
 7f0:	00f42400 	.word	0x00f42400
 7f4:	4000c028 	.word	0x4000c028
 7f8:	4000c02c 	.word	0x4000c02c
 7fc:	4000cfc8 	.word	0x4000cfc8

00000800 <UARTSendChar>:
 800:	b480      	push	{r7}
 802:	b083      	sub	sp, #12
 804:	af00      	add	r7, sp, #0
 806:	4603      	mov	r3, r0
 808:	71fb      	strb	r3, [r7, #7]
 80a:	4a04      	ldr	r2, [pc, #16]	; (81c <UARTSendChar+0x1c>)
 80c:	79fb      	ldrb	r3, [r7, #7]
 80e:	6013      	str	r3, [r2, #0]
 810:	bf00      	nop
 812:	370c      	adds	r7, #12
 814:	46bd      	mov	sp, r7
 816:	bc80      	pop	{r7}
 818:	4770      	bx	lr
 81a:	bf00      	nop
 81c:	4000c000 	.word	0x4000c000

00000820 <UARTRecvChar>:
 820:	b480      	push	{r7}
 822:	af00      	add	r7, sp, #0
 824:	4b07      	ldr	r3, [pc, #28]	; (844 <UARTRecvChar+0x24>)
 826:	681b      	ldr	r3, [r3, #0]
 828:	f003 0340 	and.w	r3, r3, #64	; 0x40
 82c:	2b00      	cmp	r3, #0
 82e:	d003      	beq.n	838 <UARTRecvChar+0x18>
 830:	4b05      	ldr	r3, [pc, #20]	; (848 <UARTRecvChar+0x28>)
 832:	681b      	ldr	r3, [r3, #0]
 834:	b2db      	uxtb	r3, r3
 836:	e000      	b.n	83a <UARTRecvChar+0x1a>
 838:	2300      	movs	r3, #0
 83a:	4618      	mov	r0, r3
 83c:	46bd      	mov	sp, r7
 83e:	bc80      	pop	{r7}
 840:	4770      	bx	lr
 842:	bf00      	nop
 844:	4000c018 	.word	0x4000c018
 848:	4000c000 	.word	0x4000c000

0000084c <UARTSendString>:
 84c:	b480      	push	{r7}
 84e:	b083      	sub	sp, #12
 850:	af00      	add	r7, sp, #0
 852:	6078      	str	r0, [r7, #4]
 854:	bf00      	nop
 856:	370c      	adds	r7, #12
 858:	46bd      	mov	sp, r7
 85a:	bc80      	pop	{r7}
 85c:	4770      	bx	lr
 85e:	bf00      	nop
